; Function Attrs: nofree norecurse nosync nounwind memory(argmem: write) uwtable
define internal void @gray16(ptr noundef writeonly captures(none) %0, ptr readnone captures(none) %1, i64 noundef %2, i32 noundef %3) #10 {
  %.not3 = icmp eq i32 %3, 0
  br i1 %.not3, label %._crit_edge, label %.lr.ph.preheader

.lr.ph.preheader:                                 ; preds = %4
  %5 = sext i32 %3 to i64
  br label %.lr.ph

.lr.ph:                                           ; preds = %.lr.ph.preheader, %.lr.ph
  %indvars.iv = phi i64 [ %5, %.lr.ph.preheader ], [ %indvars.iv.next, %.lr.ph ]
  %indvars.iv.next = add nsw i64 %indvars.iv, -1
  %6 = mul nsw i64 %2, %indvars.iv.next
  %7 = getelementptr inbounds i8, ptr %0, i64 %6
  tail call void @llvm.memset.p0.i64(ptr noundef nonnull align 1 dereferenceable(16) %7, i8 -128, i64 16, i1 false)
  %.not = icmp eq i64 %indvars.iv.next, 0
  br i1 %.not, label %._crit_edge, label %.lr.ph, !llvm.loop !137

._crit_edge:                                      ; preds = %.lr.ph, %4
  ret void
}